Certificate:
    Data:
        Version: 3 (0x2)
        Serial Number: 1 (0x1)
    Signature Algorithm: ecdsa-with-SHA256
        Issuer: C=MY, O=AY.HX, CN=Au Yong Chee Meng [v4]
        Validity
            Not Before: May  5 07:46:18 2016 GMT
            Not After : May  3 07:46:18 2026 GMT
        Subject: C=MY, O=AY.HX, CN=Intermediate Root for AY.HX Private
        Subject Public Key Info:
            Public Key Algorithm: id-ecPublicKey
                Public-Key: (256 bit)
                pub: 
                    04:55:5e:0e:68:17:5f:95:5b:ae:40:69:21:9c:20:
                    31:cb:dc:86:73:dc:05:c5:f2:95:c2:49:ae:bd:c1:
                    a5:ac:bd:8f:fb:6c:2a:c7:b5:fb:db:53:96:da:8f:
                    89:9a:fa:b5:e8:eb:be:a4:4e:c3:50:cf:a0:76:cc:
                    b5:63:6b:6f:13
                ASN1 OID: prime256v1
                NIST CURVE: P-256
        X509v3 extensions:
            X509v3 Basic Constraints: 
                CA:TRUE
            Netscape Comment: 
                Intermediate root for AY.HX
            X509v3 Subject Key Identifier: 
                E6:6F:60:92:13:4D:E7:57:50:E0:CB:70:13:56:56:46:97:D8:DE:67
            X509v3 Authority Key Identifier: 
                keyid:53:84:8D:0D:B6:02:98:96:C3:D2:95:B6:47:98:80:A2:48:F7:58:65

    Signature Algorithm: ecdsa-with-SHA256
         30:45:02:20:6f:80:ec:27:2d:5c:69:81:ca:30:f8:5f:52:7f:
         1a:b9:df:d0:d2:b8:a4:00:ed:b4:0c:66:71:40:25:f0:33:72:
         02:21:00:b7:09:21:37:6e:ef:ef:8d:a2:c0:38:04:c9:4c:7a:
         d5:50:b9:2b:9b:e0:81:90:f5:ac:d6:46:bb:4a:2c:22:53
-----BEGIN CERTIFICATE-----
MIIB9DCCAZqgAwIBAgIBATAKBggqhkjOPQQDAjA+MQswCQYDVQQGEwJNWTEOMAwG
A1UEChMFQVkuSFgxHzAdBgNVBAMUFkF1IFlvbmcgQ2hlZSBNZW5nIFt2NF0wHhcN
MTYwNTA1MDc0NjE4WhcNMjYwNTAzMDc0NjE4WjBLMQswCQYDVQQGEwJNWTEOMAwG
A1UEChMFQVkuSFgxLDAqBgNVBAMTI0ludGVybWVkaWF0ZSBSb290IGZvciBBWS5I
WCBQcml2YXRlMFkwEwYHKoZIzj0CAQYIKoZIzj0DAQcDQgAEVV4OaBdflVuuQGkh
nCAxy9yGc9wFxfKVwkmuvcGlrL2P+2wqx7X721OW2o+Jmvq16Ou+pE7DUM+gdsy1
Y2tvE6N8MHowDAYDVR0TBAUwAwEB/zAqBglghkgBhvhCAQ0EHRYbSW50ZXJtZWRp
YXRlIHJvb3QgZm9yIEFZLkhYMB0GA1UdDgQWBBTmb2CSE03nV1Dgy3ATVlZGl9je
ZzAfBgNVHSMEGDAWgBRThI0NtgKYlsPSlbZHmICiSPdYZTAKBggqhkjOPQQDAgNI
ADBFAiBvgOwnLVxpgcow+F9Sfxq539DSuKQA7bQMZnFAJfAzcgIhALcJITdu7++N
osA4BMlMetVQuSub4IGQ9azWRrtKLCJT
-----END CERTIFICATE-----
