Certificate:
    Data:
        Version: 3 (0x2)
        Serial Number: 2 (0x2)
    Signature Algorithm: ecdsa-with-SHA256
        Issuer: C=MY, O=AY.HX, CN=Au Yong Chee Meng [v4]
        Validity
            Not Before: May  5 07:50:40 2016 GMT
            Not After : May  3 07:50:40 2026 GMT
        Subject: C=MY, O=AY.HX, CN=Intermediate Root for AY.HX Public
        Subject Public Key Info:
            Public Key Algorithm: id-ecPublicKey
                Public-Key: (256 bit)
                pub: 
                    04:9b:a9:af:83:7f:21:ed:1a:25:57:59:65:a8:d6:
                    fb:12:0b:8d:59:10:73:75:89:6b:ae:e0:76:ca:32:
                    24:b1:86:a3:85:d6:77:2f:d7:0a:08:30:dd:88:ac:
                    06:e4:54:50:72:ee:a5:19:69:03:a3:1c:6c:e2:53:
                    07:8e:02:1d:98
                ASN1 OID: prime256v1
                NIST CURVE: P-256
        X509v3 extensions:
            X509v3 Basic Constraints: 
                CA:TRUE
            Netscape Comment: 
                Intermediate root for AY.HX
            X509v3 Subject Key Identifier: 
                07:D1:B8:78:87:B9:82:88:4C:32:42:74:02:2B:E1:66:00:D2:31:06
            X509v3 Authority Key Identifier: 
                keyid:53:84:8D:0D:B6:02:98:96:C3:D2:95:B6:47:98:80:A2:48:F7:58:65

    Signature Algorithm: ecdsa-with-SHA256
         30:45:02:21:00:df:e8:2f:24:da:25:a2:00:3a:74:d1:41:a1:
         f8:02:2f:b9:29:79:32:06:b9:7b:b9:67:82:ec:27:11:15:bc:
         36:02:20:78:04:ab:44:c7:7b:13:ad:00:ff:39:28:ca:99:13:
         d1:e3:a4:8a:c6:e0:f4:3f:b9:2e:5e:34:8c:84:2e:04:41
-----BEGIN CERTIFICATE-----
MIIB8zCCAZmgAwIBAgIBAjAKBggqhkjOPQQDAjA+MQswCQYDVQQGEwJNWTEOMAwG
A1UEChMFQVkuSFgxHzAdBgNVBAMUFkF1IFlvbmcgQ2hlZSBNZW5nIFt2NF0wHhcN
MTYwNTA1MDc1MDQwWhcNMjYwNTAzMDc1MDQwWjBKMQswCQYDVQQGEwJNWTEOMAwG
A1UEChMFQVkuSFgxKzApBgNVBAMTIkludGVybWVkaWF0ZSBSb290IGZvciBBWS5I
WCBQdWJsaWMwWTATBgcqhkjOPQIBBggqhkjOPQMBBwNCAASbqa+DfyHtGiVXWWWo
1vsSC41ZEHN1iWuu4HbKMiSxhqOF1ncv1woIMN2IrAbkVFBy7qUZaQOjHGziUweO
Ah2Yo3wwejAMBgNVHRMEBTADAQH/MCoGCWCGSAGG+EIBDQQdFhtJbnRlcm1lZGlh
dGUgcm9vdCBmb3IgQVkuSFgwHQYDVR0OBBYEFAfRuHiHuYKITDJCdAIr4WYA0jEG
MB8GA1UdIwQYMBaAFFOEjQ22ApiWw9KVtkeYgKJI91hlMAoGCCqGSM49BAMCA0gA
MEUCIQDf6C8k2iWiADp00UGh+AIvuSl5Mga5e7lnguwnERW8NgIgeASrRMd7E60A
/zkoypkT0eOkisbg9D+5Ll40jIQuBEE=
-----END CERTIFICATE-----
