Certificate:
    Data:
        Version: 3 (0x2)
        Serial Number: 1 (0x1)
    Signature Algorithm: sha256WithRSAEncryption
        Issuer: C=MY, O=AY.HX, CN=Au Yong Chee Meng [v4]
        Validity
            Not Before: May  5 07:03:56 2016 GMT
            Not After : May  3 07:03:56 2026 GMT
        Subject: C=MY, O=AY.HX, CN=Intermediate Root for AY.HX Private
        Subject Public Key Info:
            Public Key Algorithm: rsaEncryption
                Public-Key: (4096 bit)
                Modulus:
                    00:be:cf:3e:eb:ce:4e:48:a4:29:8b:a4:01:9a:95:
                    e4:06:fb:98:f3:3b:84:7a:77:86:97:26:83:40:dc:
                    b5:1d:a3:e1:9d:34:f4:df:24:be:3e:70:2c:9b:e8:
                    91:05:eb:90:a2:87:aa:b5:05:0d:9a:01:44:a6:09:
                    67:80:1b:7a:66:a2:8b:7b:65:4a:6e:bc:d1:3f:16:
                    83:73:bd:43:4a:65:00:17:2f:f2:48:97:6d:41:84:
                    a0:d2:c7:3e:66:51:54:50:a6:fc:92:63:09:04:e5:
                    51:13:c4:e7:f2:e3:6a:1a:c9:7e:b9:f9:cd:ab:25:
                    fa:63:bc:4b:21:9e:19:87:86:2e:ce:06:15:16:26:
                    27:da:5a:5d:7f:b4:20:09:1f:d8:ec:da:b9:a1:ea:
                    0e:7e:77:a0:78:20:39:a7:fe:89:64:0e:26:9a:bb:
                    a0:73:73:76:87:d6:ff:a5:4c:dc:c8:65:ee:55:47:
                    8c:3d:86:98:71:a0:e9:05:53:ba:81:fc:4b:f8:08:
                    29:b0:c4:f6:03:c4:da:32:3f:86:32:6d:b6:ff:d8:
                    ee:e2:15:9b:1b:3e:a8:ee:c4:cc:e8:bd:5e:cf:5c:
                    29:bd:ba:8d:57:4f:75:ca:3a:a3:ca:e0:32:d3:9f:
                    a1:12:b9:d6:5a:9b:cf:e9:3b:9b:7d:6c:39:f4:be:
                    a5:7c:54:55:85:47:de:2c:19:f0:5e:14:14:11:10:
                    21:07:e6:e9:15:62:c2:2f:85:1a:bf:6a:f1:94:ad:
                    a3:a9:f9:d6:28:34:38:7d:e1:a5:0c:f3:56:44:c2:
                    6e:7c:46:c1:ad:13:54:c6:b5:bf:fc:2c:74:9e:5f:
                    e6:8e:77:56:cb:21:10:c2:59:bc:1e:eb:13:5c:a6:
                    a9:e4:0d:e0:44:7e:fd:24:21:1f:3a:7e:13:95:41:
                    5d:a9:f9:96:41:14:3b:27:6d:e3:b4:c5:2a:0c:e4:
                    6a:da:b6:75:9d:a7:36:ed:83:cb:28:2e:62:8a:a7:
                    c7:a4:3b:7b:ac:84:69:2b:34:b6:f6:fc:72:3f:72:
                    b4:71:d3:ca:43:bb:2f:49:c0:68:08:d0:c1:fd:58:
                    1e:00:e2:07:15:48:a9:02:be:bb:5f:7d:23:17:67:
                    72:2d:a5:39:e5:e5:ff:ef:4c:c0:7d:25:0c:83:41:
                    ad:9a:9b:4f:d5:57:4b:f2:d3:fc:b2:ae:d6:9f:2d:
                    0b:2e:99:e4:f3:bf:a9:d0:f4:d3:82:f7:4c:7e:ae:
                    17:cc:25:d0:24:c9:0d:1e:bf:04:39:7e:1d:a2:ef:
                    68:c9:0c:35:e9:a7:57:ab:32:3b:5b:83:62:ca:38:
                    d9:ce:60:f7:f0:ce:8e:c0:dd:eb:c6:55:38:5e:e2:
                    74:8e:27
                Exponent: 65537 (0x10001)
        X509v3 extensions:
            X509v3 Basic Constraints: 
                CA:TRUE
            Netscape Comment: 
                Intermediate root for AY.HX
            X509v3 Subject Key Identifier: 
                EE:37:66:E3:05:53:2F:29:42:A8:A4:41:3C:C3:8E:29:D0:6B:70:2A
            X509v3 Authority Key Identifier: 
                keyid:4E:97:0E:8D:C4:01:F3:F7:A9:B3:42:A2:12:32:C7:30:E1:38:BD:03

    Signature Algorithm: sha256WithRSAEncryption
         51:71:8d:f2:fd:77:5e:3c:10:3c:f4:c0:8f:a8:60:37:fd:9d:
         46:8a:5b:7f:e2:02:0e:11:2d:c3:43:ef:eb:03:fb:7b:90:6e:
         c5:1f:b2:8a:cd:24:69:38:b5:e9:0d:d7:7e:fe:f4:eb:32:09:
         2c:ef:a1:fa:cf:cf:f1:8c:89:56:20:ad:07:87:c3:31:62:dc:
         b3:40:2f:b3:3a:c8:61:88:ca:df:b8:49:20:36:13:5e:df:62:
         f1:67:c9:40:5f:ac:82:33:b6:9c:7d:22:15:da:b7:7b:b6:36:
         e5:d1:b2:ce:97:e6:c5:7e:8f:08:75:ea:17:dc:95:c5:0d:e2:
         12:0c:02:43:50:bc:b2:99:c3:1c:7e:e3:6c:c9:96:91:89:46:
         94:5f:0b:3c:a4:9b:49:8c:31:fe:f8:d9:69:0f:80:8a:83:8e:
         53:92:8f:99:de:c2:3f:5f:67:a7:6c:06:8c:13:6b:30:ca:ee:
         57:fe:2d:2f:48:29:91:8d:d6:6d:99:26:04:35:ab:2d:7f:ca:
         00:c3:85:09:91:25:83:6f:bd:f6:03:e3:f2:5b:db:0e:27:32:
         f5:c7:e3:fd:08:aa:99:73:35:05:b4:c8:8c:f0:cd:07:09:39:
         3f:f0:2f:3d:76:1c:e0:ea:62:60:b0:86:aa:d0:7a:f6:88:03:
         00:86:11:a6:82:3c:64:e6:f1:64:49:b4:b3:84:55:72:d6:7c:
         ed:00:46:b6:af:9b:8b:92:6c:58:51:10:a4:39:45:db:b0:04:
         a9:df:54:16:f5:5f:88:ab:f4:64:cb:7d:e6:12:91:f6:d6:f5:
         1b:b1:ec:ec:09:d2:5c:8c:c9:8f:8a:7f:e7:5c:a8:b0:fe:8f:
         4a:a7:9b:9c:3b:41:04:b9:04:85:22:49:c9:83:d0:b9:b2:34:
         45:08:39:a1:e8:19:2a:7b:c3:fb:b0:a2:fc:a5:7e:84:d0:10:
         f5:33:a4:4a:7a:8e:b8:47:b8:34:00:2b:be:39:f6:89:1c:27:
         d7:a0:53:8f:b9:61:ec:29:a1:d9:99:d5:c9:c6:60:dd:83:8e:
         d4:65:61:bd:5d:6e:d6:1d:60:55:78:54:42:21:1b:ca:69:10:
         9a:33:cc:08:6d:e3:d1:d6:fc:7e:e5:05:e8:91:04:11:5d:47:
         4b:16:83:fd:b4:ce:57:da:cb:b5:12:9c:4a:00:a4:6f:59:b5:
         db:8d:62:b3:24:1a:c1:e6:63:3e:f5:5b:65:55:a7:00:e6:40:
         f8:63:38:58:42:81:1b:1a:81:8e:f9:59:44:a2:15:d1:a8:19:
         a5:9b:20:58:56:62:25:9d:ec:61:70:21:7d:47:b7:f1:73:42:
         db:65:1b:cc:03:c8:91:05
-----BEGIN CERTIFICATE-----
MIIFgDCCA2igAwIBAgIBATANBgkqhkiG9w0BAQsFADA+MQswCQYDVQQGEwJNWTEO
MAwGA1UEChMFQVkuSFgxHzAdBgNVBAMUFkF1IFlvbmcgQ2hlZSBNZW5nIFt2NF0w
HhcNMTYwNTA1MDcwMzU2WhcNMjYwNTAzMDcwMzU2WjBLMQswCQYDVQQGEwJNWTEO
MAwGA1UEChMFQVkuSFgxLDAqBgNVBAMTI0ludGVybWVkaWF0ZSBSb290IGZvciBB
WS5IWCBQcml2YXRlMIICIjANBgkqhkiG9w0BAQEFAAOCAg8AMIICCgKCAgEAvs8+
685OSKQpi6QBmpXkBvuY8zuEeneGlyaDQNy1HaPhnTT03yS+PnAsm+iRBeuQooeq
tQUNmgFEpglngBt6ZqKLe2VKbrzRPxaDc71DSmUAFy/ySJdtQYSg0sc+ZlFUUKb8
kmMJBOVRE8Tn8uNqGsl+ufnNqyX6Y7xLIZ4Zh4YuzgYVFiYn2lpdf7QgCR/Y7Nq5
oeoOfnegeCA5p/6JZA4mmrugc3N2h9b/pUzcyGXuVUeMPYaYcaDpBVO6gfxL+Agp
sMT2A8TaMj+GMm22/9ju4hWbGz6o7sTM6L1ez1wpvbqNV091yjqjyuAy05+hErnW
WpvP6TubfWw59L6lfFRVhUfeLBnwXhQUERAhB+bpFWLCL4Uav2rxlK2jqfnWKDQ4
feGlDPNWRMJufEbBrRNUxrW//Cx0nl/mjndWyyEQwlm8HusTXKap5A3gRH79JCEf
On4TlUFdqfmWQRQ7J23jtMUqDORq2rZ1nac27YPLKC5iiqfHpDt7rIRpKzS29vxy
P3K0cdPKQ7svScBoCNDB/VgeAOIHFUipAr67X30jF2dyLaU55eX/70zAfSUMg0Gt
mptP1VdL8tP8sq7Wny0LLpnk87+p0PTTgvdMfq4XzCXQJMkNHr8EOX4dou9oyQw1
6adXqzI7W4NiyjjZzmD38M6OwN3rxlU4XuJ0jicCAwEAAaN8MHowDAYDVR0TBAUw
AwEB/zAqBglghkgBhvhCAQ0EHRYbSW50ZXJtZWRpYXRlIHJvb3QgZm9yIEFZLkhY
MB0GA1UdDgQWBBTuN2bjBVMvKUKopEE8w44p0GtwKjAfBgNVHSMEGDAWgBROlw6N
xAHz96mzQqISMscw4Ti9AzANBgkqhkiG9w0BAQsFAAOCAgEAUXGN8v13XjwQPPTA
j6hgN/2dRopbf+ICDhEtw0Pv6wP7e5BuxR+yis0kaTi16Q3Xfv706zIJLO+h+s/P
8YyJViCtB4fDMWLcs0AvszrIYYjK37hJIDYTXt9i8WfJQF+sgjO2nH0iFdq3e7Y2
5dGyzpfmxX6PCHXqF9yVxQ3iEgwCQ1C8spnDHH7jbMmWkYlGlF8LPKSbSYwx/vjZ
aQ+AioOOU5KPmd7CP19np2wGjBNrMMruV/4tL0gpkY3WbZkmBDWrLX/KAMOFCZEl
g2+99gPj8lvbDicy9cfj/QiqmXM1BbTIjPDNBwk5P/AvPXYc4OpiYLCGqtB69ogD
AIYRpoI8ZObxZEm0s4RVctZ87QBGtq+bi5JsWFEQpDlF27AEqd9UFvVfiKv0ZMt9
5hKR9tb1G7Hs7AnSXIzJj4p/51yosP6PSqebnDtBBLkEhSJJyYPQubI0RQg5oegZ
KnvD+7Ci/KV+hNAQ9TOkSnqOuEe4NAArvjn2iRwn16BTj7lh7Cmh2ZnVycZg3YOO
1GVhvV1u1h1gVXhUQiEbymkQmjPMCG3j0db8fuUF6JEEEV1HSxaD/bTOV9rLtRKc
SgCkb1m1241isyQaweZjPvVbZVWnAOZA+GM4WEKBGxqBjvlZRKIV0agZpZsgWFZi
JZ3sYXAhfUe38XNC22UbzAPIkQU=
-----END CERTIFICATE-----
