Certificate:
    Data:
        Version: 3 (0x2)
        Serial Number: 2 (0x2)
    Signature Algorithm: sha256WithRSAEncryption
        Issuer: C=MY, O=AY.HX, CN=Au Yong Chee Meng [v4]
        Validity
            Not Before: May  5 07:07:01 2016 GMT
            Not After : May  3 07:07:01 2026 GMT
        Subject: C=MY, O=AY.HX, CN=Intermediate Root for AY.HX Public
        Subject Public Key Info:
            Public Key Algorithm: rsaEncryption
                Public-Key: (4096 bit)
                Modulus:
                    00:b5:39:1c:c0:43:ce:37:80:5f:fc:1c:e3:ee:3a:
                    2b:a3:39:27:5e:70:0e:8f:3d:8e:4e:64:ad:9a:21:
                    62:54:ec:b3:9b:ac:a9:05:a5:e0:f3:4a:0f:c0:ef:
                    a3:77:53:a6:95:ca:39:e2:8f:58:c8:21:8a:a5:ab:
                    c1:10:ba:2c:ad:6c:4f:d6:6c:eb:2a:9a:97:df:17:
                    f6:15:30:ab:65:18:c1:7d:f6:50:86:8f:fc:34:33:
                    7e:de:7e:70:2d:b0:3b:e7:78:d2:62:4c:eb:af:1f:
                    6e:1e:c2:bf:46:05:8a:5a:12:a4:17:01:c2:b2:59:
                    36:6d:46:b5:6b:de:1c:83:de:55:5b:ba:62:79:10:
                    fc:ca:96:b3:bf:98:5a:9e:d2:08:a9:cc:45:be:c5:
                    82:c7:46:52:00:8a:05:c4:fc:3b:47:0d:a1:6e:36:
                    d8:3f:d8:d8:2a:d7:ff:be:f3:0c:f3:32:c4:e8:fc:
                    02:e1:7a:f1:c2:43:94:ca:18:82:a3:01:b1:3b:1b:
                    e9:90:30:7d:86:75:ee:da:83:13:c7:37:72:4f:cf:
                    72:14:fa:63:a0:01:db:df:85:aa:31:eb:41:39:6f:
                    e1:39:b8:2a:61:8a:e9:12:94:a8:87:7e:cc:3d:76:
                    0d:c4:90:9b:1f:6c:7f:c5:a3:97:93:28:4b:39:06:
                    ef:aa:38:bf:67:99:73:18:73:2c:34:b4:4b:48:f5:
                    f7:f3:4e:e3:78:af:91:e5:f7:fe:77:b3:00:0f:50:
                    4d:ad:a4:82:0e:5b:23:9b:1c:53:79:63:53:e4:09:
                    37:7e:f2:18:f7:70:cc:c5:4d:3d:37:c9:09:0f:8d:
                    ca:ad:b9:16:5f:b9:d3:75:97:84:8f:1d:43:2d:da:
                    45:43:8d:2a:11:b3:98:98:a7:17:46:9d:1a:e2:e4:
                    bc:92:ab:4b:51:05:39:be:1a:e7:8a:be:2b:e7:70:
                    f2:20:d5:b5:1e:a2:0a:44:cb:8c:f0:78:b3:ca:3e:
                    0e:5e:e4:23:28:c7:56:c6:b5:b2:6e:0c:d1:9f:49:
                    c6:03:24:a7:69:44:d1:57:24:7b:84:16:49:54:32:
                    d2:b2:46:be:3b:8f:6d:78:55:a8:95:9c:da:77:b5:
                    2a:e6:74:0e:7e:20:03:52:24:da:d2:43:f0:c8:2f:
                    6a:3b:5d:c0:7e:8f:1c:f0:92:05:15:d3:f9:6a:8b:
                    a3:f7:45:11:15:80:b5:f0:a5:3c:ac:db:87:f0:ba:
                    77:ea:e4:c7:88:52:c2:9c:71:7e:c3:24:b9:54:18:
                    1f:aa:e4:3b:a6:12:de:0d:28:c8:3a:44:1c:5e:ae:
                    3e:eb:b0:5c:5e:77:e1:7c:e1:b8:17:2a:75:61:af:
                    73:95:43
                Exponent: 65537 (0x10001)
        X509v3 extensions:
            X509v3 Basic Constraints: 
                CA:TRUE
            Netscape Comment: 
                Intermediate root for AY.HX
            X509v3 Subject Key Identifier: 
                74:05:E2:0D:D2:43:7D:EF:DE:16:68:00:57:36:F7:05:91:9D:ED:38
            X509v3 Authority Key Identifier: 
                keyid:4E:97:0E:8D:C4:01:F3:F7:A9:B3:42:A2:12:32:C7:30:E1:38:BD:03

    Signature Algorithm: sha256WithRSAEncryption
         59:61:21:b2:31:d1:78:37:8a:b8:6e:98:87:03:35:76:e5:73:
         93:da:e1:14:5c:9e:e8:92:9c:4b:13:48:f6:4d:c9:ae:8d:d3:
         39:f5:84:70:58:4d:32:a7:04:bf:d1:37:1c:81:29:67:9d:58:
         ea:8f:4b:93:0a:9a:25:4f:6b:21:6a:b0:15:14:12:19:52:f0:
         18:1c:69:3e:41:94:db:8f:65:89:40:bf:7a:db:b1:51:e4:10:
         d8:e6:1c:3f:8e:73:e8:6d:6d:98:04:48:22:87:89:29:7e:ee:
         3b:93:94:62:55:ac:eb:3f:9e:c0:d8:7f:c6:13:fd:82:ca:6b:
         1e:9f:e4:7e:4b:9c:9f:47:d3:82:e1:cf:39:17:4b:0c:00:89:
         2b:f6:fd:d0:6a:90:02:86:a6:0c:0d:97:e6:af:b4:ab:d4:b9:
         0d:2b:8b:b6:1f:b7:4b:67:d8:fa:ed:e3:d8:84:56:74:e1:bc:
         7f:81:67:e3:77:d7:30:03:20:a5:82:cc:9c:f9:9d:38:c2:cb:
         08:db:89:32:f4:53:85:76:57:29:70:62:f0:51:20:fd:ea:d2:
         36:07:ae:a5:88:6b:d0:63:5d:01:f2:2f:f9:db:ba:62:ef:82:
         db:3f:46:fe:5f:1c:5d:16:d7:a5:05:61:63:b5:07:4f:8c:ae:
         f5:fc:66:f4:e9:00:a1:0d:f1:21:4c:4c:7d:a3:4e:ed:04:7e:
         22:2e:07:fb:f1:4d:35:07:28:26:d4:52:47:0b:9d:54:dd:3a:
         7b:16:76:7a:1e:b2:ce:39:21:ed:d8:99:6b:cf:60:70:36:da:
         06:d1:35:ac:62:61:d0:dd:83:17:12:14:60:81:16:3b:98:d1:
         c8:97:4f:f2:da:99:30:da:64:dd:b7:63:d8:9f:77:08:ca:a2:
         a8:ca:91:e1:d8:54:07:b2:01:11:e0:9a:f0:65:0d:d1:b3:4e:
         68:4d:a5:85:9f:89:47:34:30:18:c3:50:a2:f0:c2:2f:99:37:
         66:86:db:b2:aa:f8:21:a2:04:df:6a:e8:8b:e4:93:e7:9b:66:
         ea:5d:99:ea:eb:15:9c:2c:cf:e5:69:53:b6:6d:a5:3f:af:19:
         2a:86:8f:73:c2:b6:31:a1:15:7f:c7:39:6a:89:38:a3:c0:04:
         09:9c:75:20:f4:e3:df:9d:64:8c:9d:24:24:fd:0e:f1:51:53:
         8e:db:6d:58:02:4c:83:87:ab:52:b3:ea:41:7f:e3:87:fd:b8:
         8a:b3:95:f1:77:4b:4d:e6:73:a7:fa:0e:00:dd:32:dc:88:1e:
         9a:b3:db:56:42:d4:b4:d3:82:b4:d8:9c:c5:6e:79:38:41:d5:
         c4:37:2f:82:6b:1c:bc:23
-----BEGIN CERTIFICATE-----
MIIFfzCCA2egAwIBAgIBAjANBgkqhkiG9w0BAQsFADA+MQswCQYDVQQGEwJNWTEO
MAwGA1UEChMFQVkuSFgxHzAdBgNVBAMUFkF1IFlvbmcgQ2hlZSBNZW5nIFt2NF0w
HhcNMTYwNTA1MDcwNzAxWhcNMjYwNTAzMDcwNzAxWjBKMQswCQYDVQQGEwJNWTEO
MAwGA1UEChMFQVkuSFgxKzApBgNVBAMTIkludGVybWVkaWF0ZSBSb290IGZvciBB
WS5IWCBQdWJsaWMwggIiMA0GCSqGSIb3DQEBAQUAA4ICDwAwggIKAoICAQC1ORzA
Q843gF/8HOPuOiujOSdecA6PPY5OZK2aIWJU7LObrKkFpeDzSg/A76N3U6aVyjni
j1jIIYqlq8EQuiytbE/WbOsqmpffF/YVMKtlGMF99lCGj/w0M37efnAtsDvneNJi
TOuvH24ewr9GBYpaEqQXAcKyWTZtRrVr3hyD3lVbumJ5EPzKlrO/mFqe0gipzEW+
xYLHRlIAigXE/DtHDaFuNtg/2Ngq1/++8wzzMsTo/ALhevHCQ5TKGIKjAbE7G+mQ
MH2Gde7agxPHN3JPz3IU+mOgAdvfhaox60E5b+E5uCphiukSlKiHfsw9dg3EkJsf
bH/Fo5eTKEs5Bu+qOL9nmXMYcyw0tEtI9ffzTuN4r5Hl9/53swAPUE2tpIIOWyOb
HFN5Y1PkCTd+8hj3cMzFTT03yQkPjcqtuRZfudN1l4SPHUMt2kVDjSoRs5iYpxdG
nRri5LySq0tRBTm+GueKvivncPIg1bUeogpEy4zweLPKPg5e5CMox1bGtbJuDNGf
ScYDJKdpRNFXJHuEFklUMtKyRr47j214VaiVnNp3tSrmdA5+IANSJNrSQ/DIL2o7
XcB+jxzwkgUV0/lqi6P3RREVgLXwpTys24fwunfq5MeIUsKccX7DJLlUGB+q5Dum
Et4NKMg6RBxerj7rsFxed+F84bgXKnVhr3OVQwIDAQABo3wwejAMBgNVHRMEBTAD
AQH/MCoGCWCGSAGG+EIBDQQdFhtJbnRlcm1lZGlhdGUgcm9vdCBmb3IgQVkuSFgw
HQYDVR0OBBYEFHQF4g3SQ33v3hZoAFc29wWRne04MB8GA1UdIwQYMBaAFE6XDo3E
AfP3qbNCohIyxzDhOL0DMA0GCSqGSIb3DQEBCwUAA4ICAQBZYSGyMdF4N4q4bpiH
AzV25XOT2uEUXJ7okpxLE0j2TcmujdM59YRwWE0ypwS/0TccgSlnnVjqj0uTCpol
T2sharAVFBIZUvAYHGk+QZTbj2WJQL9627FR5BDY5hw/jnPobW2YBEgih4kpfu47
k5RiVazrP57A2H/GE/2Cymsen+R+S5yfR9OC4c85F0sMAIkr9v3QapAChqYMDZfm
r7Sr1LkNK4u2H7dLZ9j67ePYhFZ04bx/gWfjd9cwAyClgsyc+Z04wssI24ky9FOF
dlcpcGLwUSD96tI2B66liGvQY10B8i/527pi74LbP0b+XxxdFtelBWFjtQdPjK71
/Gb06QChDfEhTEx9o07tBH4iLgf78U01Bygm1FJHC51U3Tp7FnZ6HrLOOSHt2Jlr
z2BwNtoG0TWsYmHQ3YMXEhRggRY7mNHIl0/y2pkw2mTdt2PYn3cIyqKoypHh2FQH
sgER4JrwZQ3Rs05oTaWFn4lHNDAYw1Ci8MIvmTdmhtuyqvghogTfauiL5JPnm2bq
XZnq6xWcLM/laVO2baU/rxkqho9zwrYxoRV/xzlqiTijwAQJnHUg9OPfnWSMnSQk
/Q7xUVOO221YAkyDh6tSs+pBf+OH/biKs5Xxd0tN5nOn+g4A3TLciB6as9tWQtS0
04K02JzFbnk4QdXENy+Caxy8Iw==
-----END CERTIFICATE-----
